; Function Attrs: mustprogress nounwind uwtable
define internal fastcc void @_ZNSt16allocator_traitsISaIN12_GLOBAL__N_115cmQtAutoMocUicT7KeyExpTEEE7destroyIS2_EEvRS3_PT_(ptr noundef %0) unnamed_addr #5 align 2 {
  %2 = getelementptr inbounds i8, ptr %0, i64 576
  %3 = load ptr, ptr %2, align 8
  %4 = icmp eq ptr %3, null
  br i1 %4, label %_ZNSt15__new_allocatorIN12_GLOBAL__N_115cmQtAutoMocUicT7KeyExpTEE7destroyIS2_EEvPT_.exit, label %5

5:                                                ; preds = %1
  tail call void @_ZdaPv(ptr noundef nonnull %3) #24
  br label %_ZNSt15__new_allocatorIN12_GLOBAL__N_115cmQtAutoMocUicT7KeyExpTEE7destroyIS2_EEvPT_.exit

_ZNSt15__new_allocatorIN12_GLOBAL__N_115cmQtAutoMocUicT7KeyExpTEE7destroyIS2_EEvPT_.exit: ; preds = %1, %5
  tail call void @_ZNSt7__cxx1112basic_stringIcSt11char_traitsIcESaIcEED1Ev(ptr noundef nonnull align 8 dereferenceable(32) %0) #23
  ret void
}